; ModuleID = '32/1986.c'
source_filename = "32/1986.c"
target datalayout = "e-m:e-p270:32:32-p271:32:32-p272:64:64-i64:64-f80:128-n8:16:32:64-S128"
target triple = "x86_64-pc-linux-gnu"

@.str = private unnamed_addr constant [3 x i8] c"%d\00", align 1
@.str.1 = private unnamed_addr constant [2 x i8] c"\0A\00", align 1

; Function Attrs: noinline nounwind uwtable
define dso_local void @main() #0 {
  %1 = alloca [10000 x i8], align 16
  %2 = alloca [10000 x i8], align 16
  %3 = alloca i32, align 4
  %4 = alloca [10000 x i32], align 16
  %5 = alloca i32, align 4
  %6 = alloca i32, align 4
  %7 = alloca i32, align 4
  %8 = alloca i32, align 4
  %9 = alloca i32, align 4
  %10 = alloca i32, align 4
  %11 = call i32 (i8*, ...) @__isoc99_scanf(i8* getelementptr inbounds ([3 x i8], [3 x i8]* @.str, i64 0, i64 0), i32* %3)
  store i32 1, i32* %5, align 4
  br label %12

12:                                               ; preds = %186, %0
  %13 = load i32, i32* %5, align 4
  %14 = load i32, i32* %3, align 4
  %15 = icmp sle i32 %13, %14
  br i1 %15, label %16, label %189

16:                                               ; preds = %12
  %17 = call i32 (i8*, ...) @__isoc99_scanf(i8* getelementptr inbounds ([2 x i8], [2 x i8]* @.str.1, i64 0, i64 0))
  %18 = getelementptr inbounds [10000 x i8], [10000 x i8]* %1, i64 0, i64 0
  %19 = call i32 (i8*, ...) bitcast (i32 (...)* @gets to i32 (i8*, ...)*)(i8* %18)
  %20 = getelementptr inbounds [10000 x i8], [10000 x i8]* %2, i64 0, i64 0
  %21 = call i32 (i8*, ...) bitcast (i32 (...)* @gets to i32 (i8*, ...)*)(i8* %20)
  %22 = getelementptr inbounds [10000 x i8], [10000 x i8]* %1, i64 0, i64 0
  %23 = call i64 @strlen(i8* %22) #3
  %24 = trunc i64 %23 to i32
  store i32 %24, i32* %6, align 4
  %25 = getelementptr inbounds [10000 x i8], [10000 x i8]* %2, i64 0, i64 0
  %26 = call i64 @strlen(i8* %25) #3
  %27 = trunc i64 %26 to i32
  store i32 %27, i32* %7, align 4
  %28 = load i32, i32* %6, align 4
  %29 = load i32, i32* %7, align 4
  %30 = sub nsw i32 %28, %29
  store i32 %30, i32* %9, align 4
  %31 = load i32, i32* %7, align 4
  %32 = sub nsw i32 %31, 1
  store i32 %32, i32* %8, align 4
  br label %33

33:                                               ; preds = %46, %16
  %34 = load i32, i32* %8, align 4
  %35 = icmp sge i32 %34, 0
  br i1 %35, label %36, label %49

36:                                               ; preds = %33
  %37 = load i32, i32* %8, align 4
  %38 = sext i32 %37 to i64
  %39 = getelementptr inbounds [10000 x i8], [10000 x i8]* %2, i64 0, i64 %38
  %40 = load i8, i8* %39, align 1
  %41 = load i32, i32* %8, align 4
  %42 = load i32, i32* %9, align 4
  %43 = add nsw i32 %41, %42
  %44 = sext i32 %43 to i64
  %45 = getelementptr inbounds [10000 x i8], [10000 x i8]* %2, i64 0, i64 %44
  store i8 %40, i8* %45, align 1
  br label %46

46:                                               ; preds = %36
  %47 = load i32, i32* %8, align 4
  %48 = add nsw i32 %47, -1
  store i32 %48, i32* %8, align 4
  br label %33

49:                                               ; preds = %33
  store i32 0, i32* %8, align 4
  br label %50

50:                                               ; preds = %59, %49
  %51 = load i32, i32* %8, align 4
  %52 = load i32, i32* %9, align 4
  %53 = sub nsw i32 %52, 1
  %54 = icmp sle i32 %51, %53
  br i1 %54, label %55, label %62

55:                                               ; preds = %50
  %56 = load i32, i32* %8, align 4
  %57 = sext i32 %56 to i64
  %58 = getelementptr inbounds [10000 x i8], [10000 x i8]* %2, i64 0, i64 %57
  store i8 48, i8* %58, align 1
  br label %59

59:                                               ; preds = %55
  %60 = load i32, i32* %8, align 4
  %61 = add nsw i32 %60, 1
  store i32 %61, i32* %8, align 4
  br label %50

62:                                               ; preds = %50
  %63 = load i32, i32* %6, align 4
  %64 = sub nsw i32 %63, 1
  store i32 %64, i32* %8, align 4
  br label %65

65:                                               ; preds = %124, %62
  %66 = load i32, i32* %8, align 4
  %67 = icmp sge i32 %66, 0
  br i1 %67, label %68, label %127

68:                                               ; preds = %65
  %69 = load i32, i32* %8, align 4
  %70 = sext i32 %69 to i64
  %71 = getelementptr inbounds [10000 x i8], [10000 x i8]* %1, i64 0, i64 %70
  %72 = load i8, i8* %71, align 1
  %73 = sext i8 %72 to i32
  %74 = load i32, i32* %8, align 4
  %75 = sext i32 %74 to i64
  %76 = getelementptr inbounds [10000 x i8], [10000 x i8]* %2, i64 0, i64 %75
  %77 = load i8, i8* %76, align 1
  %78 = sext i8 %77 to i32
  %79 = icmp sge i32 %73, %78
  br i1 %79, label %80, label %95

80:                                               ; preds = %68
  %81 = load i32, i32* %8, align 4
  %82 = sext i32 %81 to i64
  %83 = getelementptr inbounds [10000 x i8], [10000 x i8]* %1, i64 0, i64 %82
  %84 = load i8, i8* %83, align 1
  %85 = sext i8 %84 to i32
  %86 = load i32, i32* %8, align 4
  %87 = sext i32 %86 to i64
  %88 = getelementptr inbounds [10000 x i8], [10000 x i8]* %2, i64 0, i64 %87
  %89 = load i8, i8* %88, align 1
  %90 = sext i8 %89 to i32
  %91 = sub nsw i32 %85, %90
  %92 = load i32, i32* %8, align 4
  %93 = sext i32 %92 to i64
  %94 = getelementptr inbounds [10000 x i32], [10000 x i32]* %4, i64 0, i64 %93
  store i32 %91, i32* %94, align 4
  br label %123

95:                                               ; preds = %68
  %96 = load i32, i32* %8, align 4
  %97 = sext i32 %96 to i64
  %98 = getelementptr inbounds [10000 x i8], [10000 x i8]* %1, i64 0, i64 %97
  %99 = load i8, i8* %98, align 1
  %100 = sext i8 %99 to i32
  %101 = add nsw i32 %100, 10
  %102 = load i32, i32* %8, align 4
  %103 = sext i32 %102 to i64
  %104 = getelementptr inbounds [10000 x i8], [10000 x i8]* %2, i64 0, i64 %103
  %105 = load i8, i8* %104, align 1
  %106 = sext i8 %105 to i32
  %107 = sub nsw i32 %101, %106
  %108 = load i32, i32* %8, align 4
  %109 = sext i32 %108 to i64
  %110 = getelementptr inbounds [10000 x i32], [10000 x i32]* %4, i64 0, i64 %109
  store i32 %107, i32* %110, align 4
  %111 = load i32, i32* %8, align 4
  %112 = sub nsw i32 %111, 1
  %113 = sext i32 %112 to i64
  %114 = getelementptr inbounds [10000 x i8], [10000 x i8]* %1, i64 0, i64 %113
  %115 = load i8, i8* %114, align 1
  %116 = sext i8 %115 to i32
  %117 = sub nsw i32 %116, 1
  %118 = trunc i32 %117 to i8
  %119 = load i32, i32* %8, align 4
  %120 = sub nsw i32 %119, 1
  %121 = sext i32 %120 to i64
  %122 = getelementptr inbounds [10000 x i8], [10000 x i8]* %1, i64 0, i64 %121
  store i8 %118, i8* %122, align 1
  br label %123

123:                                              ; preds = %95, %80
  br label %124

124:                                              ; preds = %123
  %125 = load i32, i32* %8, align 4
  %126 = add nsw i32 %125, -1
  store i32 %126, i32* %8, align 4
  br label %65

127:                                              ; preds = %65
  store i32 0, i32* %10, align 4
  %128 = getelementptr inbounds [10000 x i32], [10000 x i32]* %4, i64 0, i64 0
  %129 = load i32, i32* %128, align 16
  %130 = icmp eq i32 %129, 0
  br i1 %130, label %131, label %149

131:                                              ; preds = %127
  store i32 0, i32* %8, align 4
  br label %132

132:                                              ; preds = %145, %131
  %133 = load i32, i32* %8, align 4
  %134 = load i32, i32* %6, align 4
  %135 = icmp slt i32 %133, %134
  br i1 %135, label %136, label %148

136:                                              ; preds = %132
  %137 = load i32, i32* %8, align 4
  %138 = add nsw i32 %137, 1
  %139 = sext i32 %138 to i64
  %140 = getelementptr inbounds [10000 x i32], [10000 x i32]* %4, i64 0, i64 %139
  %141 = load i32, i32* %140, align 4
  %142 = load i32, i32* %8, align 4
  %143 = sext i32 %142 to i64
  %144 = getelementptr inbounds [10000 x i32], [10000 x i32]* %4, i64 0, i64 %143
  store i32 %141, i32* %144, align 4
  store i32 1, i32* %10, align 4
  br label %145

145:                                              ; preds = %136
  %146 = load i32, i32* %8, align 4
  %147 = add nsw i32 %146, 1
  store i32 %147, i32* %8, align 4
  br label %132

148:                                              ; preds = %132
  br label %149

149:                                              ; preds = %148, %127
  %150 = load i32, i32* %10, align 4
  %151 = icmp eq i32 %150, 1
  br i1 %151, label %152, label %169

152:                                              ; preds = %149
  store i32 0, i32* %8, align 4
  br label %153

153:                                              ; preds = %164, %152
  %154 = load i32, i32* %8, align 4
  %155 = load i32, i32* %6, align 4
  %156 = sub nsw i32 %155, 1
  %157 = icmp slt i32 %154, %156
  br i1 %157, label %158, label %167

158:                                              ; preds = %153
  %159 = load i32, i32* %8, align 4
  %160 = sext i32 %159 to i64
  %161 = getelementptr inbounds [10000 x i32], [10000 x i32]* %4, i64 0, i64 %160
  %162 = load i32, i32* %161, align 4
  %163 = call i32 (i8*, ...) @printf(i8* getelementptr inbounds ([3 x i8], [3 x i8]* @.str, i64 0, i64 0), i32 %162)
  br label %164

164:                                              ; preds = %158
  %165 = load i32, i32* %8, align 4
  %166 = add nsw i32 %165, 1
  store i32 %166, i32* %8, align 4
  br label %153

167:                                              ; preds = %153
  %168 = call i32 (i8*, ...) @printf(i8* getelementptr inbounds ([2 x i8], [2 x i8]* @.str.1, i64 0, i64 0))
  br label %185

169:                                              ; preds = %149
  store i32 0, i32* %8, align 4
  br label %170

170:                                              ; preds = %180, %169
  %171 = load i32, i32* %8, align 4
  %172 = load i32, i32* %6, align 4
  %173 = icmp slt i32 %171, %172
  br i1 %173, label %174, label %183

174:                                              ; preds = %170
  %175 = load i32, i32* %8, align 4
  %176 = sext i32 %175 to i64
  %177 = getelementptr inbounds [10000 x i32], [10000 x i32]* %4, i64 0, i64 %176
  %178 = load i32, i32* %177, align 4
  %179 = call i32 (i8*, ...) @printf(i8* getelementptr inbounds ([3 x i8], [3 x i8]* @.str, i64 0, i64 0), i32 %178)
  br label %180

180:                                              ; preds = %174
  %181 = load i32, i32* %8, align 4
  %182 = add nsw i32 %181, 1
  store i32 %182, i32* %8, align 4
  br label %170

183:                                              ; preds = %170
  %184 = call i32 (i8*, ...) @printf(i8* getelementptr inbounds ([2 x i8], [2 x i8]* @.str.1, i64 0, i64 0))
  br label %185

185:                                              ; preds = %183, %167
  br label %186

186:                                              ; preds = %185
  %187 = load i32, i32* %5, align 4
  %188 = add nsw i32 %187, 1
  store i32 %188, i32* %5, align 4
  br label %12

189:                                              ; preds = %12
  ret void
}

declare dso_local i32 @__isoc99_scanf(i8*, ...) #1

declare dso_local i32 @gets(...) #1

; Function Attrs: nounwind readonly
declare dso_local i64 @strlen(i8*) #2

declare dso_local i32 @printf(i8*, ...) #1


!llvm.module.flags = !{!0}
!llvm.ident = !{!1}

!0 = !{i32 1, !"wchar_size", i32 4}
!1 = !{!"clang version 10.0.0-4ubuntu1 "}
